target datalayout = "e-m:e-p270:32:32-p271:32:32-p272:64:64-i64:64-i128:128-f80:128-n8:16:32:64-S128"
target triple = "x86_64-pc-linux-gnu"

; Function Attrs: nounwind uwtable
define internal i32 @launchctl_remove_plists() #0 {
  %1 = call i32 @launchctl_remove_plist(i32 noundef 3)
  %2 = icmp ne i32 %1, 0
  br i1 %2, label %9, label %3

3:                                                ; preds = %0
  %4 = call i32 @launchctl_remove_plist(i32 noundef 2)
  %5 = icmp ne i32 %4, 0
  br i1 %5, label %9, label %6

6:                                                ; preds = %3
  %7 = call i32 @launchctl_remove_plist(i32 noundef 1)
  %8 = icmp ne i32 %7, 0
  br label %9

9:                                                ; preds = %6, %3, %0
  %10 = phi i1 [ true, %3 ], [ true, %0 ], [ %8, %6 ]
  %11 = zext i1 %10 to i32
  ret i32 %11
}

; Function Attrs: nounwind uwtable
define internal i32 @launchctl_add_plists() #0 {
  %1 = alloca ptr, align 8
  call void @llvm.lifetime.start.p0(i64 8, ptr %1) #11
  %2 = call ptr @git_exec_path()
  store ptr %2, ptr %1, align 8, !tbaa !11
  %3 = load ptr, ptr %1, align 8, !tbaa !11
  %4 = call i32 @launchctl_schedule_plist(ptr noundef %3, i32 noundef 3)
  %5 = icmp ne i32 %4, 0
  br i1 %5, label %14, label %6

6:                                                ; preds = %0
  %7 = load ptr, ptr %1, align 8, !tbaa !11
  %8 = call i32 @launchctl_schedule_plist(ptr noundef %7, i32 noundef 2)
  %9 = icmp ne i32 %8, 0
  br i1 %9, label %14, label %10

10:                                               ; preds = %6
  %11 = load ptr, ptr %1, align 8, !tbaa !11
  %12 = call i32 @launchctl_schedule_plist(ptr noundef %11, i32 noundef 1)
  %13 = icmp ne i32 %12, 0
  br label %14

14:                                               ; preds = %10, %6, %0
  %15 = phi i1 [ true, %6 ], [ true, %0 ], [ %13, %10 ]
  %16 = zext i1 %15 to i32
  call void @llvm.lifetime.end.p0(i64 8, ptr %1) #11
  ret i32 %16
}

; Function Attrs: nounwind uwtable
define internal i32 @launchctl_update_schedule(i32 noundef %0, i32 noundef %1) #0 {
  %3 = alloca i32, align 4
  %4 = alloca i32, align 4
  %5 = alloca i32, align 4
  store i32 %0, ptr %4, align 4, !tbaa !4
  store i32 %1, ptr %5, align 4, !tbaa !4
  %6 = load i32, ptr %4, align 4, !tbaa !4
  %7 = icmp ne i32 %6, 0
  br i1 %7, label %8, label %10

8:                                                ; preds = %2
  %9 = call i32 @launchctl_add_plists()
  store i32 %9, ptr %3, align 4
  br label %12

10:                                               ; preds = %2
  %11 = call i32 @launchctl_remove_plists()
  store i32 %11, ptr %3, align 4
  br label %12

12:                                               ; preds = %10, %8
  %13 = load i32, ptr %3, align 4
  ret i32 %13
}