; Function Attrs: nounwind uwtable
define internal range(i32 0, 2) i32 @launchctl_update_schedule(i32 noundef %0, i32 %1) #0 {
  %.not = icmp eq i32 %0, 0
  br i1 %.not, label %5, label %3

3:                                                ; preds = %2
  %4 = tail call ptr @git_exec_path() #21
  tail call fastcc void @launchctl_schedule_plist(ptr noundef %4, i32 noundef 3)
  tail call fastcc void @launchctl_schedule_plist(ptr noundef %4, i32 noundef 2)
  tail call fastcc void @launchctl_schedule_plist(ptr noundef %4, i32 noundef 1)
  br label %launchctl_remove_plists.exit

5:                                                ; preds = %2
  %6 = tail call fastcc i32 @launchctl_remove_plist(i32 noundef 3)
  %.not.i = icmp eq i32 %6, 0
  br i1 %.not.i, label %7, label %launchctl_remove_plists.exit

7:                                                ; preds = %5
  %8 = tail call fastcc i32 @launchctl_remove_plist(i32 noundef 2)
  %.not1.i = icmp eq i32 %8, 0
  br i1 %.not1.i, label %9, label %launchctl_remove_plists.exit

9:                                                ; preds = %7
  %10 = tail call fastcc i32 @launchctl_remove_plist(i32 noundef 1)
  %11 = icmp ne i32 %10, 0
  %12 = zext i1 %11 to i32
  br label %launchctl_remove_plists.exit

launchctl_remove_plists.exit:                     ; preds = %9, %7, %5, %3
  %.0 = phi i32 [ 0, %3 ], [ 1, %7 ], [ 1, %5 ], [ %12, %9 ]
  ret i32 %.0
}